(dp1
S'otro2'
p2
S'CHAR(128)'
p3
sS'nVariable'
p4
S'CHAR(32) NOT NULL'
p5
sS'archivoVariable'
p6
S'CHAR(128)'
p7
sS'otro1'
p8
S'CHAR(32)'
p9
sS'impuesto'
p10
S'CHAR(32)'
p11
sS'fotoDerecha'
p12
S'CHAR(128)'
p13
sS'fotoIzquierda'
p14
S'CHAR(32)'
p15
sS'nombre'
p16
S'CHAR(32)'
p17
sS'cantidadVariable'
p18
S'CHAR(32) NOT NULL'
p19
sS'comision'
p20
S'CHAR(32)'
p21
sS'telefono'
p22
S'CHAR(32)'
p23
sS'id'
p24
S'INTEGER PRIMARY KEY AUTOINCREMENT'
p25
s.