(dp1
S'idcanton'
p2
(dp3
S'type'
p4
S'reference canton'
p5
sS'sortable'
p6
I2
sS'sql'
p7
S'INTEGER REFERENCES canton(id) ON DELETE CASCADE'
p8
ssS'codigopostaldistrito'
p9
(dp10
g4
S'string'
p11
sg6
I4
sg7
S'CHAR(512) NOT NULL'
p12
ssS'id'
p13
(dp14
g4
S'id'
p15
sg6
I1
sg7
S'INTEGER PRIMARY KEY AUTOINCREMENT'
p16
ssS'ndistrito'
p17
(dp18
g4
g11
sg6
I3
sg7
S'CHAR(512) NOT NULL'
p19
ss.