(dp1
S'idtipopermiso'
p2
(dp3
S'type'
p4
S'reference tipoPermiso'
p5
sS'sortable'
p6
I3
sS'sql'
p7
S'INTEGER REFERENCES tipoPermiso(id) ON DELETE CASCADE'
p8
ssS'id'
p9
(dp10
g4
S'id'
p11
sg6
I1
sg7
S'INTEGER PRIMARY KEY AUTOINCREMENT'
p12
ssS'idtipousuario'
p13
(dp14
g4
S'reference tipoUsuario'
p15
sg6
I4
sg7
S'INTEGER REFERENCES tipoUsuario(id) ON DELETE CASCADE'
p16
ssS'idmodulo'
p17
(dp18
g4
S'reference modulo'
p19
sg6
I2
sg7
S'INTEGER REFERENCES modulo(id) ON DELETE CASCADE'
p20
ss.