(dp1
S'lugar'
p2
S'CHAR(32)'
p3
sS'nombre'
p4
S'CHAR(32)'
p5
sS'otro2'
p6
S'CHAR(128)'
p7
sS'comision'
p8
S'CHAR(32)'
p9
sS'impuesto'
p10
S'CHAR(32)'
p11
sS'fotoDerecha'
p12
S'CHAR(32)'
p13
sS'otro1'
p14
S'CHAR(32)'
p15
sS'pais'
p16
S'CHAR(128)'
p17
sS'fotoIzquierda'
p18
S'CHAR(32)'
p19
sS'telefono'
p20
S'CHAR(32)'
p21
sS'id'
p22
S'INTEGER PRIMARY KEY AUTOINCREMENT'
p23
s.