(dp1
S'descripcionmedioenvio'
p2
(dp3
S'type'
p4
S'text'
p5
sS'sortable'
p6
I3
sS'sql'
p7
S'TEXT'
p8
ssS'id'
p9
(dp10
g4
S'id'
p11
sg6
I1
sg7
S'INTEGER PRIMARY KEY AUTOINCREMENT'
p12
ssS'nmedioenvio'
p13
(dp14
g4
S'string'
p15
sg6
I2
sg7
S'CHAR(512) NOT NULL'
p16
ssS'preciomedioenvio'
p17
(dp18
g4
S'double'
p19
sg6
I4
sg7
S'DOUBLE NOT NULL'
p20
ss.