(dp1
S'url'
p2
(dp3
S'type'
p4
S'string'
p5
sS'sortable'
p6
I3
sS'sql'
p7
S'CHAR(512)'
p8
ssS'ctime'
p9
(dp10
g4
S'integer'
p11
sg6
I2
sg7
S'INTEGER'
p12
ssS'codigo'
p13
(dp14
g4
g5
sg6
I4
sg7
S'CHAR(512)'
p15
ssS'id'
p16
(dp17
g4
S'id'
p18
sg6
I1
sg7
S'INTEGER PRIMARY KEY AUTOINCREMENT'
p19
ssS'usuario'
p20
(dp21
g4
S'reference usuario'
p22
sg6
I5
sg7
S'INTEGER REFERENCES usuario(id) ON DELETE CASCADE'
p23
ss.