(dp1
S'numeroAsiento'
p2
S'INTEGER NOT NULL'
p3
sS'idZona'
p4
S'REFERENCES zona(id) ON DELETE CASCADE'
p5
sS'estadoAsiento'
p6
S'INTEGER NOT NULL'
p7
sS'FilaAsiento'
p8
S'INTEGER NOT NULL'
p9
sS'fechaCambioEstadoAsiento'
p10
S'TIMESTAMP NOT NULL'
p11
sS'idUsuario'
p12
S'REFERENCES usuario(id) ON DELETE CASCADE'
p13
sS'compra'
p14
S'CHAR(1)'
p15
sS'id'
p16
S'INTEGER PRIMARY KEY AUTOINCREMENT'
p17
s.